target datalayout = "e-m:e-p270:32:32-p271:32:32-p272:64:64-i64:64-i128:128-f80:128-n8:16:32:64-S128"
target triple = "x86_64-pc-linux-gnu"

; Function Attrs: nounwind uwtable
define internal i32 @drwav_result_from_errno(i32 noundef %0) #0 {
  %2 = alloca i32, align 4
  %3 = alloca i32, align 4
  store i32 %0, ptr %3, align 4
  %4 = load i32, ptr %3, align 4
  switch i32 %4, label %137 [
    i32 0, label %5
    i32 1, label %6
    i32 2, label %7
    i32 3, label %8
    i32 4, label %9
    i32 5, label %10
    i32 6, label %11
    i32 7, label %12
    i32 8, label %13
    i32 9, label %14
    i32 10, label %15
    i32 11, label %16
    i32 12, label %17
    i32 13, label %18
    i32 14, label %19
    i32 15, label %20
    i32 16, label %21
    i32 17, label %22
    i32 18, label %23
    i32 19, label %24
    i32 20, label %25
    i32 21, label %26
    i32 22, label %27
    i32 23, label %28
    i32 24, label %29
    i32 25, label %30
    i32 26, label %31
    i32 27, label %32
    i32 28, label %33
    i32 29, label %34
    i32 30, label %35
    i32 31, label %36
    i32 32, label %37
    i32 33, label %38
    i32 34, label %39
    i32 35, label %40
    i32 36, label %41
    i32 37, label %42
    i32 38, label %43
    i32 39, label %44
    i32 40, label %45
    i32 42, label %46
    i32 43, label %47
    i32 44, label %48
    i32 45, label %49
    i32 46, label %50
    i32 47, label %51
    i32 48, label %52
    i32 49, label %53
    i32 50, label %54
    i32 51, label %55
    i32 52, label %56
    i32 53, label %57
    i32 54, label %58
    i32 55, label %59
    i32 56, label %60
    i32 57, label %61
    i32 59, label %62
    i32 60, label %63
    i32 61, label %64
    i32 62, label %65
    i32 63, label %66
    i32 64, label %67
    i32 65, label %68
    i32 66, label %69
    i32 67, label %70
    i32 68, label %71
    i32 69, label %72
    i32 70, label %73
    i32 71, label %74
    i32 72, label %75
    i32 73, label %76
    i32 74, label %77
    i32 75, label %78
    i32 76, label %79
    i32 77, label %80
    i32 78, label %81
    i32 79, label %82
    i32 80, label %83
    i32 81, label %84
    i32 82, label %85
    i32 83, label %86
    i32 84, label %87
    i32 85, label %88
    i32 86, label %89
    i32 87, label %90
    i32 88, label %91
    i32 89, label %92
    i32 90, label %93
    i32 91, label %94
    i32 92, label %95
    i32 93, label %96
    i32 94, label %97
    i32 95, label %98
    i32 96, label %99
    i32 97, label %100
    i32 98, label %101
    i32 99, label %102
    i32 100, label %103
    i32 101, label %104
    i32 102, label %105
    i32 103, label %106
    i32 104, label %107
    i32 105, label %108
    i32 106, label %109
    i32 107, label %110
    i32 108, label %111
    i32 109, label %112
    i32 110, label %113
    i32 111, label %114
    i32 112, label %115
    i32 113, label %116
    i32 114, label %117
    i32 115, label %118
    i32 116, label %119
    i32 117, label %120
    i32 118, label %121
    i32 119, label %122
    i32 120, label %123
    i32 121, label %124
    i32 122, label %125
    i32 123, label %126
    i32 124, label %127
    i32 125, label %128
    i32 126, label %129
    i32 127, label %130
    i32 128, label %131
    i32 129, label %132
    i32 130, label %133
    i32 131, label %134
    i32 132, label %135
    i32 133, label %136
  ]

5:                                                ; preds = %1
  store i32 0, ptr %2, align 4
  br label %138

6:                                                ; preds = %1
  store i32 -3, ptr %2, align 4
  br label %138

7:                                                ; preds = %1
  store i32 -7, ptr %2, align 4
  br label %138

8:                                                ; preds = %1
  store i32 -7, ptr %2, align 4
  br label %138

9:                                                ; preds = %1
  store i32 -21, ptr %2, align 4
  br label %138

10:                                               ; preds = %1
  store i32 -20, ptr %2, align 4
  br label %138

11:                                               ; preds = %1
  store i32 -7, ptr %2, align 4
  br label %138

12:                                               ; preds = %1
  store i32 -2, ptr %2, align 4
  br label %138

13:                                               ; preds = %1
  store i32 -10, ptr %2, align 4
  br label %138

14:                                               ; preds = %1
  store i32 -10, ptr %2, align 4
  br label %138

15:                                               ; preds = %1
  store i32 -1, ptr %2, align 4
  br label %138

16:                                               ; preds = %1
  store i32 -22, ptr %2, align 4
  br label %138

17:                                               ; preds = %1
  store i32 -4, ptr %2, align 4
  br label %138

18:                                               ; preds = %1
  store i32 -6, ptr %2, align 4
  br label %138

19:                                               ; preds = %1
  store i32 -24, ptr %2, align 4
  br label %138

20:                                               ; preds = %1
  store i32 -1, ptr %2, align 4
  br label %138

21:                                               ; preds = %1
  store i32 -19, ptr %2, align 4
  br label %138

22:                                               ; preds = %1
  store i32 -8, ptr %2, align 4
  br label %138

23:                                               ; preds = %1
  store i32 -1, ptr %2, align 4
  br label %138

24:                                               ; preds = %1
  store i32 -7, ptr %2, align 4
  br label %138

25:                                               ; preds = %1
  store i32 -14, ptr %2, align 4
  br label %138

26:                                               ; preds = %1
  store i32 -15, ptr %2, align 4
  br label %138

27:                                               ; preds = %1
  store i32 -2, ptr %2, align 4
  br label %138

28:                                               ; preds = %1
  store i32 -9, ptr %2, align 4
  br label %138

29:                                               ; preds = %1
  store i32 -9, ptr %2, align 4
  br label %138

30:                                               ; preds = %1
  store i32 -3, ptr %2, align 4
  br label %138

31:                                               ; preds = %1
  store i32 -19, ptr %2, align 4
  br label %138

32:                                               ; preds = %1
  store i32 -11, ptr %2, align 4
  br label %138

33:                                               ; preds = %1
  store i32 -18, ptr %2, align 4
  br label %138

34:                                               ; preds = %1
  store i32 -25, ptr %2, align 4
  br label %138

35:                                               ; preds = %1
  store i32 -6, ptr %2, align 4
  br label %138

36:                                               ; preds = %1
  store i32 -28, ptr %2, align 4
  br label %138

37:                                               ; preds = %1
  store i32 -26, ptr %2, align 4
  br label %138

38:                                               ; preds = %1
  store i32 -5, ptr %2, align 4
  br label %138

39:                                               ; preds = %1
  store i32 -5, ptr %2, align 4
  br label %138

40:                                               ; preds = %1
  store i32 -27, ptr %2, align 4
  br label %138

41:                                               ; preds = %1
  store i32 -12, ptr %2, align 4
  br label %138

42:                                               ; preds = %1
  store i32 -1, ptr %2, align 4
  br label %138

43:                                               ; preds = %1
  store i32 -29, ptr %2, align 4
  br label %138

44:                                               ; preds = %1
  store i32 -16, ptr %2, align 4
  br label %138

45:                                               ; preds = %1
  store i32 -28, ptr %2, align 4
  br label %138

46:                                               ; preds = %1
  store i32 -30, ptr %2, align 4
  br label %138

47:                                               ; preds = %1
  store i32 -1, ptr %2, align 4
  br label %138

48:                                               ; preds = %1
  store i32 -1, ptr %2, align 4
  br label %138

49:                                               ; preds = %1
  store i32 -1, ptr %2, align 4
  br label %138

50:                                               ; preds = %1
  store i32 -1, ptr %2, align 4
  br label %138

51:                                               ; preds = %1
  store i32 -1, ptr %2, align 4
  br label %138

52:                                               ; preds = %1
  store i32 -5, ptr %2, align 4
  br label %138

53:                                               ; preds = %1
  store i32 -1, ptr %2, align 4
  br label %138

54:                                               ; preds = %1
  store i32 -1, ptr %2, align 4
  br label %138

55:                                               ; preds = %1
  store i32 -1, ptr %2, align 4
  br label %138

56:                                               ; preds = %1
  store i32 -1, ptr %2, align 4
  br label %138

57:                                               ; preds = %1
  store i32 -1, ptr %2, align 4
  br label %138

58:                                               ; preds = %1
  store i32 -1, ptr %2, align 4
  br label %138

59:                                               ; preds = %1
  store i32 -1, ptr %2, align 4
  br label %138

60:                                               ; preds = %1
  store i32 -1, ptr %2, align 4
  br label %138

61:                                               ; preds = %1
  store i32 -1, ptr %2, align 4
  br label %138

62:                                               ; preds = %1
  store i32 -10, ptr %2, align 4
  br label %138

63:                                               ; preds = %1
  store i32 -1, ptr %2, align 4
  br label %138

64:                                               ; preds = %1
  store i32 -32, ptr %2, align 4
  br label %138

65:                                               ; preds = %1
  store i32 -34, ptr %2, align 4
  br label %138

66:                                               ; preds = %1
  store i32 -32, ptr %2, align 4
  br label %138

67:                                               ; preds = %1
  store i32 -35, ptr %2, align 4
  br label %138

68:                                               ; preds = %1
  store i32 -1, ptr %2, align 4
  br label %138

69:                                               ; preds = %1
  store i32 -1, ptr %2, align 4
  br label %138

70:                                               ; preds = %1
  store i32 -1, ptr %2, align 4
  br label %138

71:                                               ; preds = %1
  store i32 -1, ptr %2, align 4
  br label %138

72:                                               ; preds = %1
  store i32 -1, ptr %2, align 4
  br label %138

73:                                               ; preds = %1
  store i32 -1, ptr %2, align 4
  br label %138

74:                                               ; preds = %1
  store i32 -1, ptr %2, align 4
  br label %138

75:                                               ; preds = %1
  store i32 -1, ptr %2, align 4
  br label %138

76:                                               ; preds = %1
  store i32 -1, ptr %2, align 4
  br label %138

77:                                               ; preds = %1
  store i32 -31, ptr %2, align 4
  br label %138

78:                                               ; preds = %1
  store i32 -11, ptr %2, align 4
  br label %138

79:                                               ; preds = %1
  store i32 -36, ptr %2, align 4
  br label %138

80:                                               ; preds = %1
  store i32 -1, ptr %2, align 4
  br label %138

81:                                               ; preds = %1
  store i32 -1, ptr %2, align 4
  br label %138

82:                                               ; preds = %1
  store i32 -6, ptr %2, align 4
  br label %138

83:                                               ; preds = %1
  store i32 -10, ptr %2, align 4
  br label %138

84:                                               ; preds = %1
  store i32 -10, ptr %2, align 4
  br label %138

85:                                               ; preds = %1
  store i32 -1, ptr %2, align 4
  br label %138

86:                                               ; preds = %1
  store i32 -1, ptr %2, align 4
  br label %138

87:                                               ; preds = %1
  store i32 -33, ptr %2, align 4
  br label %138

88:                                               ; preds = %1
  store i32 -1, ptr %2, align 4
  br label %138

89:                                               ; preds = %1
  store i32 -1, ptr %2, align 4
  br label %138

90:                                               ; preds = %1
  store i32 -1, ptr %2, align 4
  br label %138

91:                                               ; preds = %1
  store i32 -37, ptr %2, align 4
  br label %138

92:                                               ; preds = %1
  store i32 -38, ptr %2, align 4
  br label %138

93:                                               ; preds = %1
  store i32 -11, ptr %2, align 4
  br label %138

94:                                               ; preds = %1
  store i32 -39, ptr %2, align 4
  br label %138

95:                                               ; preds = %1
  store i32 -40, ptr %2, align 4
  br label %138

96:                                               ; preds = %1
  store i32 -41, ptr %2, align 4
  br label %138

97:                                               ; preds = %1
  store i32 -44, ptr %2, align 4
  br label %138

98:                                               ; preds = %1
  store i32 -3, ptr %2, align 4
  br label %138

99:                                               ; preds = %1
  store i32 -42, ptr %2, align 4
  br label %138

100:                                              ; preds = %1
  store i32 -43, ptr %2, align 4
  br label %138

101:                                              ; preds = %1
  store i32 -23, ptr %2, align 4
  br label %138

102:                                              ; preds = %1
  store i32 -1, ptr %2, align 4
  br label %138

103:                                              ; preds = %1
  store i32 -35, ptr %2, align 4
  br label %138

104:                                              ; preds = %1
  store i32 -35, ptr %2, align 4
  br label %138

105:                                              ; preds = %1
  store i32 -35, ptr %2, align 4
  br label %138

106:                                              ; preds = %1
  store i32 -35, ptr %2, align 4
  br label %138

107:                                              ; preds = %1
  store i32 -45, ptr %2, align 4
  br label %138

108:                                              ; preds = %1
  store i32 -18, ptr %2, align 4
  br label %138

109:                                              ; preds = %1
  store i32 -46, ptr %2, align 4
  br label %138

110:                                              ; preds = %1
  store i32 -47, ptr %2, align 4
  br label %138

111:                                              ; preds = %1
  store i32 -1, ptr %2, align 4
  br label %138

112:                                              ; preds = %1
  store i32 -1, ptr %2, align 4
  br label %138

113:                                              ; preds = %1
  store i32 -34, ptr %2, align 4
  br label %138

114:                                              ; preds = %1
  store i32 -48, ptr %2, align 4
  br label %138

115:                                              ; preds = %1
  store i32 -49, ptr %2, align 4
  br label %138

116:                                              ; preds = %1
  store i32 -49, ptr %2, align 4
  br label %138

117:                                              ; preds = %1
  store i32 -50, ptr %2, align 4
  br label %138

118:                                              ; preds = %1
  store i32 -50, ptr %2, align 4
  br label %138

119:                                              ; preds = %1
  store i32 -10, ptr %2, align 4
  br label %138

120:                                              ; preds = %1
  store i32 -1, ptr %2, align 4
  br label %138

121:                                              ; preds = %1
  store i32 -1, ptr %2, align 4
  br label %138

122:                                              ; preds = %1
  store i32 -1, ptr %2, align 4
  br label %138

123:                                              ; preds = %1
  store i32 -1, ptr %2, align 4
  br label %138

124:                                              ; preds = %1
  store i32 -20, ptr %2, align 4
  br label %138

125:                                              ; preds = %1
  store i32 -18, ptr %2, align 4
  br label %138

126:                                              ; preds = %1
  store i32 -7, ptr %2, align 4
  br label %138

127:                                              ; preds = %1
  store i32 -1, ptr %2, align 4
  br label %138

128:                                              ; preds = %1
  store i32 -51, ptr %2, align 4
  br label %138

129:                                              ; preds = %1
  store i32 -1, ptr %2, align 4
  br label %138

130:                                              ; preds = %1
  store i32 -1, ptr %2, align 4
  br label %138

131:                                              ; preds = %1
  store i32 -1, ptr %2, align 4
  br label %138

132:                                              ; preds = %1
  store i32 -1, ptr %2, align 4
  br label %138

133:                                              ; preds = %1
  store i32 -1, ptr %2, align 4
  br label %138

134:                                              ; preds = %1
  store i32 -1, ptr %2, align 4
  br label %138

135:                                              ; preds = %1
  store i32 -1, ptr %2, align 4
  br label %138

136:                                              ; preds = %1
  store i32 -1, ptr %2, align 4
  br label %138

137:                                              ; preds = %1
  store i32 -1, ptr %2, align 4
  br label %138

138:                                              ; preds = %137, %136, %135, %134, %133, %132, %131, %130, %129, %128, %127, %126, %125, %124, %123, %122, %121, %120, %119, %118, %117, %116, %115, %114, %113, %112, %111, %110, %109, %108, %107, %106, %105, %104, %103, %102, %101, %100, %99, %98, %97, %96, %95, %94, %93, %92, %91, %90, %89, %88, %87, %86, %85, %84, %83, %82, %81, %80, %79, %78, %77, %76, %75, %74, %73, %72, %71, %70, %69, %68, %67, %66, %65, %64, %63, %62, %61, %60, %59, %58, %57, %56, %55, %54, %53, %52, %51, %50, %49, %48, %47, %46, %45, %44, %43, %42, %41, %40, %39, %38, %37, %36, %35, %34, %33, %32, %31, %30, %29, %28, %27, %26, %25, %24, %23, %22, %21, %20, %19, %18, %17, %16, %15, %14, %13, %12, %11, %10, %9, %8, %7, %6, %5
  %139 = load i32, ptr %2, align 4
  ret i32 %139
}