; Function Attrs: mustprogress nofree norecurse nosync nounwind willreturn memory(none) uwtable
define internal fastcc range(i32 -51, 1) i32 @drwav_result_from_errno(i32 noundef %0) unnamed_addr #1 {
  %2 = icmp ult i32 %0, 126
  br i1 %2, label %switch.lookup, label %4

switch.lookup:                                    ; preds = %1
  %3 = zext nneg i32 %0 to i64
  %switch.gep = getelementptr inbounds nuw [126 x i32], ptr @switch.table.drwav_result_from_errno, i64 0, i64 %3
  %switch.load = load i32, ptr %switch.gep, align 4
  br label %4

4:                                                ; preds = %1, %switch.lookup
  %.0 = phi i32 [ %switch.load, %switch.lookup ], [ -1, %1 ]
  ret i32 %.0
}